; Function Attrs: nounwind uwtable
define dso_local ptr @PyFunction_GetClosure(ptr noundef readonly captures(none) %0) local_unnamed_addr #0 {
  %2 = getelementptr i8, ptr %0, i64 8
  %.val = load ptr, ptr %2, align 8, !tbaa !130
  %.not = icmp eq ptr %.val, @PyFunction_Type
  br i1 %.not, label %4, label %3

3:                                                ; preds = %1
  tail call void @_PyErr_BadInternalCall(ptr noundef nonnull @.str.3, i32 noundef 517) #8
  br label %7

4:                                                ; preds = %1
  %5 = getelementptr inbounds nuw i8, ptr %0, i64 72
  %6 = load ptr, ptr %5, align 8, !tbaa !115
  br label %7

7:                                                ; preds = %4, %3
  %.0 = phi ptr [ %6, %4 ], [ null, %3 ]
  ret ptr %.0
}